target datalayout = "e-m:e-p270:32:32-p271:32:32-p272:64:64-i64:64-i128:128-f80:128-n8:16:32:64-S128"
target triple = "x86_64-pc-linux-gnu"

%struct._zval_struct = type { %union._zend_value, %union.anon, %union.anon.2 }
%union._zend_value = type { i64 }
%union.anon = type { i32 }
%union.anon.2 = type { i32 }
%struct._zend_stack = type { i32, i32, i32, ptr }
%union._zend_function = type { %struct._zend_op_array }
%struct._zend_op_array = type { i8, [3 x i8], i32, ptr, ptr, ptr, i32, i32, ptr, ptr, ptr, ptr, i32, ptr, i32, i32, i32, ptr, ptr, ptr, ptr, ptr, i32, i32, ptr, ptr, ptr, i32, i32, i32, i32, ptr, ptr, [6 x ptr] }
%struct._zend_array = type { %struct._zend_refcounted_h, %union.anon.6, i32, %union.anon.8, i32, i32, i32, i32, i64, ptr }
%struct._zend_refcounted_h = type { i32, %union.anon.4 }
%union.anon.4 = type { i32 }
%union.anon.6 = type { i32 }
%union.anon.8 = type { ptr }
%struct._zend_compiler_globals = type { %struct._zend_stack, ptr, ptr, i32, ptr, ptr, ptr, ptr, i8, i8, i8, i8, i8, %struct._zend_llist, ptr, i8, i8, i8, i8, ptr, i32, i32, %struct._zend_oparray_context, %struct._zend_file_context, ptr, %struct._zend_array, ptr, i64, i8, i8, i8, ptr, ptr, %struct._zend_stack, ptr, i32, ptr, ptr, i64, i64, ptr, ptr, ptr, ptr, i32, ptr, i32, %struct._zend_stack }
%struct._zend_llist = type { ptr, ptr, i64, i64, ptr, i8, ptr }
%struct._zend_oparray_context = type { ptr, ptr, i32, i32, i32, i32, i32, i32, i32, ptr, ptr, ptr, i32, i8 }
%struct._zend_file_context = type { %struct._zend_declarables, ptr, i8, i8, ptr, ptr, ptr, %struct._zend_array }
%struct._zend_declarables = type { i64 }
%struct._zend_closure = type { %struct._zend_object, %union._zend_function, %struct._zval_struct, ptr, ptr }
%struct._zend_object = type { %struct._zend_refcounted_h, i32, i32, ptr, ptr, ptr, [1 x %struct._zval_struct] }

@compiler_globals = external global %struct._zend_compiler_globals, align 8

; Function Attrs: nounwind uwtable
define hidden void @zend_closure_bind_var_ex(ptr noundef %0, i32 noundef %1, ptr noundef %2) #0 {
  %4 = alloca ptr, align 8
  %5 = alloca i32, align 4
  %6 = alloca ptr, align 8
  %7 = alloca ptr, align 8
  %8 = alloca ptr, align 8
  %9 = alloca ptr, align 8
  %10 = alloca ptr, align 8
  %11 = alloca ptr, align 8
  %12 = alloca ptr, align 8
  %13 = alloca i32, align 4
  store ptr %0, ptr %4, align 8, !tbaa !9
  store i32 %1, ptr %5, align 4, !tbaa !18
  store ptr %2, ptr %6, align 8, !tbaa !9
  call void @llvm.lifetime.start.p0(i64 8, ptr %7) #11
  %14 = load ptr, ptr %4, align 8, !tbaa !9
  %15 = getelementptr inbounds nuw %struct._zval_struct, ptr %14, i32 0, i32 0
  %16 = load ptr, ptr %15, align 8, !tbaa !20
  store ptr %16, ptr %7, align 8, !tbaa !40
  call void @llvm.lifetime.start.p0(i64 8, ptr %8) #11
  %17 = load ptr, ptr %7, align 8, !tbaa !40
  %18 = getelementptr inbounds nuw %struct._zend_closure, ptr %17, i32 0, i32 1
  %19 = getelementptr inbounds nuw %struct._zend_op_array, ptr %18, i32 0, i32 18
  %20 = load ptr, ptr %19, align 8, !tbaa !20
  %21 = ptrtoint ptr %20 to i64
  %22 = and i64 %21, 1
  %23 = icmp ne i64 %22, 0
  br i1 %23, label %24, label %33

24:                                               ; preds = %3
  %25 = load ptr, ptr getelementptr inbounds nuw (%struct._zend_compiler_globals, ptr @compiler_globals, i32 0, i32 37), align 8, !tbaa !124
  %26 = load ptr, ptr %7, align 8, !tbaa !40
  %27 = getelementptr inbounds nuw %struct._zend_closure, ptr %26, i32 0, i32 1
  %28 = getelementptr inbounds nuw %struct._zend_op_array, ptr %27, i32 0, i32 18
  %29 = load ptr, ptr %28, align 8, !tbaa !20
  %30 = ptrtoint ptr %29 to i64
  %31 = getelementptr inbounds i8, ptr %25, i64 %30
  %32 = load ptr, ptr %31, align 8, !tbaa !67
  br label %38

33:                                               ; preds = %3
  %34 = load ptr, ptr %7, align 8, !tbaa !40
  %35 = getelementptr inbounds nuw %struct._zend_closure, ptr %34, i32 0, i32 1
  %36 = getelementptr inbounds nuw %struct._zend_op_array, ptr %35, i32 0, i32 18
  %37 = load ptr, ptr %36, align 8, !tbaa !20
  br label %38

38:                                               ; preds = %33, %24
  %39 = phi ptr [ %32, %24 ], [ %37, %33 ]
  store ptr %39, ptr %8, align 8, !tbaa !26
  call void @llvm.lifetime.start.p0(i64 8, ptr %9) #11
  %40 = load ptr, ptr %8, align 8, !tbaa !26
  %41 = getelementptr inbounds nuw %struct._zend_array, ptr %40, i32 0, i32 3
  %42 = load ptr, ptr %41, align 8, !tbaa !20
  %43 = load i32, ptr %5, align 4, !tbaa !18
  %44 = zext i32 %43 to i64
  %45 = getelementptr inbounds nuw i8, ptr %42, i64 %44
  store ptr %45, ptr %9, align 8, !tbaa !9
  %46 = load ptr, ptr %9, align 8, !tbaa !9
  call void @zval_ptr_dtor(ptr noundef %46)
  br label %47

47:                                               ; preds = %38
  call void @llvm.lifetime.start.p0(i64 8, ptr %10) #11
  %48 = load ptr, ptr %9, align 8, !tbaa !9
  store ptr %48, ptr %10, align 8, !tbaa !9
  call void @llvm.lifetime.start.p0(i64 8, ptr %11) #11
  %49 = load ptr, ptr %6, align 8, !tbaa !9
  store ptr %49, ptr %11, align 8, !tbaa !9
  call void @llvm.lifetime.start.p0(i64 8, ptr %12) #11
  %50 = load ptr, ptr %11, align 8, !tbaa !9
  %51 = getelementptr inbounds nuw %struct._zval_struct, ptr %50, i32 0, i32 0
  %52 = load ptr, ptr %51, align 8, !tbaa !20
  store ptr %52, ptr %12, align 8, !tbaa !68
  call void @llvm.lifetime.start.p0(i64 4, ptr %13) #11
  %53 = load ptr, ptr %11, align 8, !tbaa !9
  %54 = getelementptr inbounds nuw %struct._zval_struct, ptr %53, i32 0, i32 1
  %55 = load i32, ptr %54, align 8, !tbaa !20
  store i32 %55, ptr %13, align 4, !tbaa !18
  br label %56

56:                                               ; preds = %47
  %57 = load ptr, ptr %12, align 8, !tbaa !68
  %58 = load ptr, ptr %10, align 8, !tbaa !9
  %59 = getelementptr inbounds nuw %struct._zval_struct, ptr %58, i32 0, i32 0
  store ptr %57, ptr %59, align 8, !tbaa !20
  %60 = load i32, ptr %13, align 4, !tbaa !18
  %61 = load ptr, ptr %10, align 8, !tbaa !9
  %62 = getelementptr inbounds nuw %struct._zval_struct, ptr %61, i32 0, i32 1
  store i32 %60, ptr %62, align 8, !tbaa !20
  br label %63

63:                                               ; preds = %56
  br label %64

64:                                               ; preds = %63
  call void @llvm.lifetime.end.p0(i64 4, ptr %13) #11
  call void @llvm.lifetime.end.p0(i64 8, ptr %12) #11
  call void @llvm.lifetime.end.p0(i64 8, ptr %11) #11
  call void @llvm.lifetime.end.p0(i64 8, ptr %10) #11
  br label %65

65:                                               ; preds = %64
  br label %66

66:                                               ; preds = %65
  call void @llvm.lifetime.end.p0(i64 8, ptr %9) #11
  call void @llvm.lifetime.end.p0(i64 8, ptr %8) #11
  call void @llvm.lifetime.end.p0(i64 8, ptr %7) #11
  ret void
}