; Function Attrs: nounwind uwtable
define hidden void @zend_closure_bind_var_ex(ptr noundef readonly captures(none) %0, i32 noundef %1, ptr noundef readonly captures(none) %2) local_unnamed_addr #0 {
  %4 = load ptr, ptr %0, align 8, !tbaa !15
  %5 = getelementptr inbounds nuw i8, ptr %4, i64 168
  %6 = load ptr, ptr %5, align 8, !tbaa !15
  %7 = ptrtoint ptr %6 to i64
  %8 = and i64 %7, 1
  %.not = icmp eq i64 %8, 0
  br i1 %.not, label %13, label %9

9:                                                ; preds = %3
  %10 = load ptr, ptr getelementptr inbounds nuw (i8, ptr @compiler_globals, i64 512), align 8, !tbaa !102
  %11 = getelementptr inbounds i8, ptr %10, i64 %7
  %12 = load ptr, ptr %11, align 8, !tbaa !89
  br label %13

13:                                               ; preds = %3, %9
  %14 = phi ptr [ %12, %9 ], [ %6, %3 ]
  %15 = getelementptr inbounds nuw i8, ptr %14, i64 16
  %16 = load ptr, ptr %15, align 8, !tbaa !15
  %17 = zext i32 %1 to i64
  %18 = getelementptr inbounds nuw i8, ptr %16, i64 %17
  tail call void @zval_ptr_dtor(ptr noundef %18) #13
  %19 = load ptr, ptr %2, align 8, !tbaa !15
  %20 = getelementptr inbounds nuw i8, ptr %2, i64 8
  %21 = load i32, ptr %20, align 8, !tbaa !15
  store ptr %19, ptr %18, align 8, !tbaa !15
  %22 = getelementptr inbounds nuw i8, ptr %18, i64 8
  store i32 %21, ptr %22, align 8, !tbaa !15
  ret void
}